; Function Attrs: nounwind uwtable
define ptr @l_Lean_ScopedEnvExtension_modifyState___rarg(ptr noundef %0, ptr noundef %1, ptr noundef %2) #2 {
  %4 = getelementptr inbounds nuw i8, ptr %0, i64 16
  %5 = load ptr, ptr %4, align 8, !tbaa !9
  %6 = ptrtoint ptr %5 to i64
  %7 = and i64 %6, 1
  %.not = icmp eq i64 %7, 0
  br i1 %.not, label %8, label %lean_inc.exit13

8:                                                ; preds = %3
  %.val.i = load i32, ptr %5, align 4, !tbaa !4
  %9 = icmp sgt i32 %.val.i, 0
  br i1 %9, label %10, label %12, !prof !11

10:                                               ; preds = %8
  %11 = add nuw i32 %.val.i, 1
  store i32 %11, ptr %5, align 4, !tbaa !4
  br label %lean_inc.exit13

12:                                               ; preds = %8
  %.not.i17 = icmp eq i32 %.val.i, 0
  br i1 %.not.i17, label %lean_inc.exit13, label %13

13:                                               ; preds = %12
  tail call void @lean_inc_ref_cold(ptr noundef nonnull %5) #7
  br label %lean_inc.exit13

lean_inc.exit13:                                  ; preds = %13, %12, %10, %3
  %14 = ptrtoint ptr %0 to i64
  %15 = and i64 %14, 1
  %.not23 = icmp eq i64 %15, 0
  br i1 %.not23, label %16, label %lean_dec.exit14

16:                                               ; preds = %lean_inc.exit13
  %17 = load i32, ptr %0, align 4, !tbaa !4
  %18 = icmp sgt i32 %17, 1
  br i1 %18, label %19, label %21, !prof !11

19:                                               ; preds = %16
  %20 = add nsw i32 %17, -1
  store i32 %20, ptr %0, align 4, !tbaa !4
  br label %lean_dec.exit14

21:                                               ; preds = %16
  %.not.i = icmp eq i32 %17, 0
  br i1 %.not.i, label %lean_dec.exit14, label %22

22:                                               ; preds = %21
  tail call void @lean_dec_ref_cold(ptr noundef nonnull %0) #7
  br label %lean_dec.exit14

lean_dec.exit14:                                  ; preds = %22, %21, %19, %lean_inc.exit13
  tail call void @lean_inc_heartbeat() #7
  %23 = tail call noalias ptr @mi_malloc_small(i64 noundef 32) #7
  %24 = icmp eq ptr %23, null
  br i1 %24, label %25, label %lean_alloc_closure.exit

25:                                               ; preds = %lean_dec.exit14
  tail call void @lean_internal_panic_out_of_memory() #8
  unreachable

lean_alloc_closure.exit:                          ; preds = %lean_dec.exit14
  %26 = getelementptr inbounds nuw i8, ptr %23, i64 4
  store i32 1, ptr %23, align 4, !tbaa !4
  store i32 -184549344, ptr %26, align 4
  %27 = getelementptr inbounds nuw i8, ptr %23, i64 8
  store ptr @l_Lean_ScopedEnvExtension_modifyState___rarg___lambda__1, ptr %27, align 8, !tbaa !9
  %28 = getelementptr inbounds nuw i8, ptr %23, i64 16
  store i16 2, ptr %28, align 8, !tbaa !14
  %29 = getelementptr inbounds nuw i8, ptr %23, i64 18
  store i16 1, ptr %29, align 2, !tbaa !14
  %30 = getelementptr inbounds nuw i8, ptr %23, i64 24
  store ptr %2, ptr %30, align 8, !tbaa !9
  %31 = getelementptr inbounds nuw i8, ptr %5, i64 8
  %32 = load ptr, ptr %31, align 8, !tbaa !9
  %33 = ptrtoint ptr %32 to i64
  %34 = and i64 %33, 1
  %.not24 = icmp eq i64 %34, 0
  br i1 %.not24, label %35, label %lean_inc.exit

35:                                               ; preds = %lean_alloc_closure.exit
  %.val.i18 = load i32, ptr %32, align 4, !tbaa !4
  %36 = icmp sgt i32 %.val.i18, 0
  br i1 %36, label %37, label %39, !prof !11

37:                                               ; preds = %35
  %38 = add nuw i32 %.val.i18, 1
  store i32 %38, ptr %32, align 4, !tbaa !4
  br label %45

39:                                               ; preds = %35
  %.not.i19 = icmp eq i32 %.val.i18, 0
  br i1 %.not.i19, label %.thread21, label %42

.thread21:                                        ; preds = %39
  %40 = getelementptr inbounds nuw i8, ptr %32, i64 32
  %41 = load i8, ptr %40, align 1, !tbaa !17
  br label %lean_dec.exit

42:                                               ; preds = %39
  tail call void @lean_inc_ref_cold(ptr noundef nonnull %32) #7
  %.pr = load i32, ptr %32, align 4, !tbaa !4
  br label %45

lean_inc.exit:                                    ; preds = %lean_alloc_closure.exit
  %43 = getelementptr inbounds nuw i8, ptr %32, i64 32
  %44 = load i8, ptr %43, align 1, !tbaa !17
  br label %lean_dec.exit

45:                                               ; preds = %42, %37
  %46 = phi i32 [ %.pr, %42 ], [ %38, %37 ]
  %47 = getelementptr inbounds nuw i8, ptr %32, i64 32
  %48 = load i8, ptr %47, align 1, !tbaa !17
  %49 = icmp sgt i32 %46, 1
  br i1 %49, label %50, label %52, !prof !18

50:                                               ; preds = %45
  %51 = add nsw i32 %46, -1
  store i32 %51, ptr %32, align 4, !tbaa !4
  br label %lean_dec.exit

52:                                               ; preds = %45
  %.not.i15 = icmp eq i32 %46, 0
  br i1 %.not.i15, label %lean_dec.exit, label %53

53:                                               ; preds = %52
  tail call void @lean_dec_ref_cold(ptr noundef nonnull %32) #7
  br label %lean_dec.exit

lean_dec.exit:                                    ; preds = %53, %52, %50, %.thread21, %lean_inc.exit
  %54 = phi i8 [ %44, %lean_inc.exit ], [ %48, %50 ], [ %48, %52 ], [ %48, %53 ], [ %41, %.thread21 ]
  %55 = tail call ptr @l_Lean_PersistentEnvExtension_modifyState___rarg(ptr noundef nonnull %5, ptr noundef %1, ptr noundef nonnull %23, i8 noundef zeroext %54) #7
  ret ptr %55
}